; ModuleID = '7/623.c'
source_filename = "7/623.c"
target datalayout = "e-m:e-p270:32:32-p271:32:32-p272:64:64-i64:64-f80:128-n8:16:32:64-S128"
target triple = "x86_64-pc-linux-gnu"

@.str = private unnamed_addr constant [7 x i8] c"%s%s%s\00", align 1
@.str.1 = private unnamed_addr constant [3 x i8] c"%s\00", align 1

; Function Attrs: noinline nounwind uwtable
define dso_local i32 @main() #0 {
  %1 = alloca i32, align 4
  %2 = alloca [300 x i8], align 16
  %3 = alloca [100 x i8], align 16
  %4 = alloca [100 x i8], align 16
  %5 = alloca i32, align 4
  %6 = alloca i32, align 4
  %7 = alloca i32, align 4
  %8 = alloca i32, align 4
  store i32 0, i32* %1, align 4
  %9 = getelementptr inbounds [300 x i8], [300 x i8]* %2, i64 0, i64 0
  %10 = getelementptr inbounds [100 x i8], [100 x i8]* %3, i64 0, i64 0
  %11 = getelementptr inbounds [100 x i8], [100 x i8]* %4, i64 0, i64 0
  %12 = call i32 (i8*, ...) @__isoc99_scanf(i8* getelementptr inbounds ([7 x i8], [7 x i8]* @.str, i64 0, i64 0), i8* %9, i8* %10, i8* %11)
  %13 = getelementptr inbounds [100 x i8], [100 x i8]* %3, i64 0, i64 0
  %14 = call i64 @strlen(i8* %13) #3
  %15 = trunc i64 %14 to i32
  store i32 %15, i32* %8, align 4
  store i32 0, i32* %5, align 4
  br label %16

16:                                               ; preds = %73, %0
  %17 = load i32, i32* %5, align 4
  %18 = sext i32 %17 to i64
  %19 = getelementptr inbounds [300 x i8], [300 x i8]* %2, i64 0, i64 %18
  %20 = load i8, i8* %19, align 1
  %21 = sext i8 %20 to i32
  %22 = icmp ne i32 %21, 0
  br i1 %22, label %23, label %76

23:                                               ; preds = %16
  store i32 0, i32* %7, align 4
  store i32 0, i32* %6, align 4
  br label %24

24:                                               ; preds = %46, %23
  %25 = load i32, i32* %6, align 4
  %26 = load i32, i32* %8, align 4
  %27 = icmp slt i32 %25, %26
  br i1 %27, label %28, label %49

28:                                               ; preds = %24
  %29 = load i32, i32* %5, align 4
  %30 = load i32, i32* %6, align 4
  %31 = add nsw i32 %29, %30
  %32 = sext i32 %31 to i64
  %33 = getelementptr inbounds [300 x i8], [300 x i8]* %2, i64 0, i64 %32
  %34 = load i8, i8* %33, align 1
  %35 = sext i8 %34 to i32
  %36 = load i32, i32* %6, align 4
  %37 = sext i32 %36 to i64
  %38 = getelementptr inbounds [100 x i8], [100 x i8]* %3, i64 0, i64 %37
  %39 = load i8, i8* %38, align 1
  %40 = sext i8 %39 to i32
  %41 = icmp eq i32 %35, %40
  br i1 %41, label %42, label %45

42:                                               ; preds = %28
  %43 = load i32, i32* %7, align 4
  %44 = add nsw i32 %43, 1
  store i32 %44, i32* %7, align 4
  br label %45

45:                                               ; preds = %42, %28
  br label %46

46:                                               ; preds = %45
  %47 = load i32, i32* %6, align 4
  %48 = add nsw i32 %47, 1
  store i32 %48, i32* %6, align 4
  br label %24

49:                                               ; preds = %24
  %50 = load i32, i32* %7, align 4
  %51 = load i32, i32* %8, align 4
  %52 = icmp eq i32 %50, %51
  br i1 %52, label %53, label %72

53:                                               ; preds = %49
  store i32 0, i32* %6, align 4
  br label %54

54:                                               ; preds = %68, %53
  %55 = load i32, i32* %6, align 4
  %56 = load i32, i32* %8, align 4
  %57 = icmp slt i32 %55, %56
  br i1 %57, label %58, label %71

58:                                               ; preds = %54
  %59 = load i32, i32* %6, align 4
  %60 = sext i32 %59 to i64
  %61 = getelementptr inbounds [100 x i8], [100 x i8]* %4, i64 0, i64 %60
  %62 = load i8, i8* %61, align 1
  %63 = load i32, i32* %5, align 4
  %64 = load i32, i32* %6, align 4
  %65 = add nsw i32 %63, %64
  %66 = sext i32 %65 to i64
  %67 = getelementptr inbounds [300 x i8], [300 x i8]* %2, i64 0, i64 %66
  store i8 %62, i8* %67, align 1
  br label %68

68:                                               ; preds = %58
  %69 = load i32, i32* %6, align 4
  %70 = add nsw i32 %69, 1
  store i32 %70, i32* %6, align 4
  br label %54

71:                                               ; preds = %54
  br label %76

72:                                               ; preds = %49
  br label %73

73:                                               ; preds = %72
  %74 = load i32, i32* %5, align 4
  %75 = add nsw i32 %74, 1
  store i32 %75, i32* %5, align 4
  br label %16

76:                                               ; preds = %71, %16
  %77 = getelementptr inbounds [300 x i8], [300 x i8]* %2, i64 0, i64 0
  %78 = call i32 (i8*, ...) @printf(i8* getelementptr inbounds ([3 x i8], [3 x i8]* @.str.1, i64 0, i64 0), i8* %77)
  ret i32 0
}

declare dso_local i32 @__isoc99_scanf(i8*, ...) #1

; Function Attrs: nounwind readonly
declare dso_local i64 @strlen(i8*) #2

declare dso_local i32 @printf(i8*, ...) #1


!llvm.module.flags = !{!0}
!llvm.ident = !{!1}

!0 = !{i32 1, !"wchar_size", i32 4}
!1 = !{!"clang version 10.0.0-4ubuntu1 "}
