; ModuleID = 'source-C-CXX/6/623.c'
source_filename = "source-C-CXX/6/623.c"
target datalayout = "e-m:e-p270:32:32-p271:32:32-p272:64:64-i64:64-f80:128-n8:16:32:64-S128"
target triple = "x86_64-pc-linux-gnu"

@.str = private unnamed_addr constant [7 x i8] c"%s%s%s\00", align 1
@.str.1 = private unnamed_addr constant [3 x i8] c"%s\00", align 1

; Function Attrs: nofree nounwind sspstrong uwtable
define dso_local i32 @main() local_unnamed_addr #0 {
  %1 = alloca [300 x i8], align 16
  %2 = alloca [100 x i8], align 16
  %3 = alloca [100 x i8], align 16
  %4 = getelementptr inbounds [100 x i8], [100 x i8]* %3, i64 0, i64 0
  %5 = getelementptr inbounds [300 x i8], [300 x i8]* %1, i64 0, i64 0
  call void @llvm.lifetime.start.p0i8(i64 300, i8* nonnull %5) #6
  %6 = getelementptr inbounds [100 x i8], [100 x i8]* %2, i64 0, i64 0
  call void @llvm.lifetime.start.p0i8(i64 100, i8* nonnull %6) #6
  %7 = getelementptr inbounds [100 x i8], [100 x i8]* %3, i64 0, i64 0
  call void @llvm.lifetime.start.p0i8(i64 100, i8* nonnull %7) #6
  %8 = call i32 (i8*, ...) @__isoc99_scanf(i8* getelementptr inbounds ([7 x i8], [7 x i8]* @.str, i64 0, i64 0), i8* nonnull %5, i8* nonnull %6, i8* nonnull %7)
  %9 = call i64 @strlen(i8* noundef nonnull %6) #7
  %10 = trunc i64 %9 to i32
  %11 = load i8, i8* %5, align 16, !tbaa !5
  %12 = icmp eq i8 %11, 0
  br i1 %12, label %80, label %13

13:                                               ; preds = %0
  %14 = icmp sgt i32 %10, 0
  br i1 %14, label %15, label %80

15:                                               ; preds = %13
  %16 = and i64 %9, 4294967295
  %17 = icmp ult i64 %16, 8
  %18 = and i64 %9, 7
  %19 = sub nsw i64 %16, %18
  %20 = icmp eq i64 %18, 0
  br label %21

21:                                               ; preds = %15, %54
  %22 = phi i64 [ 0, %15 ], [ %55, %54 ]
  br i1 %17, label %51, label %23

23:                                               ; preds = %21, %23
  %24 = phi i64 [ %46, %23 ], [ 0, %21 ]
  %25 = phi <4 x i32> [ %44, %23 ], [ zeroinitializer, %21 ]
  %26 = phi <4 x i32> [ %45, %23 ], [ zeroinitializer, %21 ]
  %27 = add nuw nsw i64 %24, %22
  %28 = getelementptr inbounds [300 x i8], [300 x i8]* %1, i64 0, i64 %27
  %29 = bitcast i8* %28 to <4 x i8>*
  %30 = load <4 x i8>, <4 x i8>* %29, align 1, !tbaa !5
  %31 = getelementptr inbounds i8, i8* %28, i64 4
  %32 = bitcast i8* %31 to <4 x i8>*
  %33 = load <4 x i8>, <4 x i8>* %32, align 1, !tbaa !5
  %34 = getelementptr inbounds [100 x i8], [100 x i8]* %2, i64 0, i64 %24
  %35 = bitcast i8* %34 to <4 x i8>*
  %36 = load <4 x i8>, <4 x i8>* %35, align 8, !tbaa !5
  %37 = getelementptr inbounds i8, i8* %34, i64 4
  %38 = bitcast i8* %37 to <4 x i8>*
  %39 = load <4 x i8>, <4 x i8>* %38, align 4, !tbaa !5
  %40 = icmp eq <4 x i8> %30, %36
  %41 = icmp eq <4 x i8> %33, %39
  %42 = zext <4 x i1> %40 to <4 x i32>
  %43 = zext <4 x i1> %41 to <4 x i32>
  %44 = add <4 x i32> %25, %42
  %45 = add <4 x i32> %26, %43
  %46 = add nuw i64 %24, 8
  %47 = icmp eq i64 %46, %19
  br i1 %47, label %48, label %23, !llvm.loop !8

48:                                               ; preds = %23
  %49 = add <4 x i32> %45, %44
  %50 = call i32 @llvm.vector.reduce.add.v4i32(<4 x i32> %49)
  br i1 %20, label %72, label %51

51:                                               ; preds = %21, %48
  %52 = phi i64 [ 0, %21 ], [ %19, %48 ]
  %53 = phi i32 [ 0, %21 ], [ %50, %48 ]
  br label %59

54:                                               ; preds = %72
  %55 = add nuw i64 %22, 1
  %56 = getelementptr inbounds [300 x i8], [300 x i8]* %1, i64 0, i64 %55
  %57 = load i8, i8* %56, align 1, !tbaa !5
  %58 = icmp eq i8 %57, 0
  br i1 %58, label %80, label %21, !llvm.loop !11

59:                                               ; preds = %51, %59
  %60 = phi i64 [ %70, %59 ], [ %52, %51 ]
  %61 = phi i32 [ %69, %59 ], [ %53, %51 ]
  %62 = add nuw nsw i64 %60, %22
  %63 = getelementptr inbounds [300 x i8], [300 x i8]* %1, i64 0, i64 %62
  %64 = load i8, i8* %63, align 1, !tbaa !5
  %65 = getelementptr inbounds [100 x i8], [100 x i8]* %2, i64 0, i64 %60
  %66 = load i8, i8* %65, align 1, !tbaa !5
  %67 = icmp eq i8 %64, %66
  %68 = zext i1 %67 to i32
  %69 = add nuw nsw i32 %61, %68
  %70 = add nuw nsw i64 %60, 1
  %71 = icmp eq i64 %70, %16
  br i1 %71, label %72, label %59, !llvm.loop !12

72:                                               ; preds = %59, %48
  %73 = phi i32 [ %50, %48 ], [ %69, %59 ]
  %74 = icmp eq i32 %73, %10
  br i1 %74, label %75, label %54

75:                                               ; preds = %72
  br i1 %14, label %76, label %80

76:                                               ; preds = %75
  %77 = and i64 %22, 4294967295
  %78 = getelementptr [300 x i8], [300 x i8]* %1, i64 0, i64 %77
  %79 = and i64 %9, 4294967295
  call void @llvm.memcpy.p0i8.p0i8.i64(i8* align 1 %78, i8* nonnull align 16 %4, i64 %79, i1 false)
  br label %80

80:                                               ; preds = %54, %13, %76, %0, %75
  %81 = call i32 (i8*, ...) @printf(i8* nonnull dereferenceable(1) getelementptr inbounds ([3 x i8], [3 x i8]* @.str.1, i64 0, i64 0), i8* nonnull %5)
  call void @llvm.lifetime.end.p0i8(i64 100, i8* nonnull %7) #6
  call void @llvm.lifetime.end.p0i8(i64 100, i8* nonnull %6) #6
  call void @llvm.lifetime.end.p0i8(i64 300, i8* nonnull %5) #6
  ret i32 0
}

; Function Attrs: argmemonly mustprogress nofree nosync nounwind willreturn
declare void @llvm.lifetime.start.p0i8(i64 immarg, i8* nocapture) #1

; Function Attrs: nofree nounwind
declare noundef i32 @__isoc99_scanf(i8* nocapture noundef readonly, ...) local_unnamed_addr #2

; Function Attrs: argmemonly mustprogress nofree nounwind readonly willreturn
declare i64 @strlen(i8* nocapture) local_unnamed_addr #3

; Function Attrs: nofree nounwind
declare noundef i32 @printf(i8* nocapture noundef readonly, ...) local_unnamed_addr #2

; Function Attrs: argmemonly mustprogress nofree nosync nounwind willreturn
declare void @llvm.lifetime.end.p0i8(i64 immarg, i8* nocapture) #1

; Function Attrs: argmemonly nofree nounwind willreturn
declare void @llvm.memcpy.p0i8.p0i8.i64(i8* noalias nocapture writeonly, i8* noalias nocapture readonly, i64, i1 immarg) #4

; Function Attrs: nofree nosync nounwind readnone willreturn
declare i32 @llvm.vector.reduce.add.v4i32(<4 x i32>) #5


!llvm.module.flags = !{!0, !1, !2, !3}
!llvm.ident = !{!4}

!0 = !{i32 1, !"wchar_size", i32 4}
!1 = !{i32 7, !"PIC Level", i32 2}
!2 = !{i32 7, !"PIE Level", i32 2}
!3 = !{i32 7, !"uwtable", i32 1}
!4 = !{!"clang version 13.0.0"}
!5 = !{!6, !6, i64 0}
!6 = !{!"omnipotent char", !7, i64 0}
!7 = !{!"Simple C/C++ TBAA"}
!8 = distinct !{!8, !9, !10}
!9 = !{!"llvm.loop.mustprogress"}
!10 = !{!"llvm.loop.isvectorized", i32 1}
!11 = distinct !{!11, !9}
!12 = distinct !{!12, !9, !13, !10}
!13 = !{!"llvm.loop.unroll.runtime.disable"}
